target datalayout = "e-m:e-p270:32:32-p271:32:32-p272:64:64-i64:64-i128:128-f80:128-n8:16:32:64-S128"
target triple = "x86_64-pc-linux-gnu"

%class.QString = type { %struct.QArrayDataPointer }
%struct.QArrayDataPointer = type { ptr, ptr, i64 }
%class.QAbstractItemModel = type { %class.QObject }
%class.QObject = type { ptr, %class.QScopedPointer }
%class.QScopedPointer = type { ptr }
%class.TrafficListSortModel = type { %class.QSortFilterProxyModel, %class.QString }
%class.QSortFilterProxyModel = type { %class.QAbstractProxyModel }
%class.QAbstractProxyModel = type { %class.QAbstractItemModel }

; Function Attrs: mustprogress uwtable
define void @_ZN20TrafficListSortModel9setFilterE7QString(ptr noundef nonnull align 8 dereferenceable(40) %0, ptr noundef %1) #1 align 2 {
  %3 = alloca ptr, align 8
  %4 = alloca ptr, align 8
  store ptr %0, ptr %3, align 8
  store ptr %1, ptr %4, align 8
  %5 = load ptr, ptr %3, align 8
  %6 = getelementptr inbounds %class.TrafficListSortModel, ptr %5, i32 0, i32 1
  %7 = call noundef i32 @_ZNK7QString7compareERKS_N2Qt15CaseSensitivityE(ptr noundef nonnull align 8 dereferenceable(24) %1, ptr noundef nonnull align 8 dereferenceable(24) %6, i32 noundef 1) #13
  %8 = icmp ne i32 %7, 0
  br i1 %8, label %9, label %12

9:                                                ; preds = %2
  %10 = getelementptr inbounds %class.TrafficListSortModel, ptr %5, i32 0, i32 1
  %11 = call noundef nonnull align 8 dereferenceable(24) ptr @_ZN7QStringaSERKS_(ptr noundef nonnull align 8 dereferenceable(24) %10, ptr noundef nonnull align 8 dereferenceable(24) %1) #13
  call void @_ZN21QSortFilterProxyModel16invalidateFilterEv(ptr noundef nonnull align 8 dereferenceable(16) %5)
  br label %12

12:                                               ; preds = %9, %2
  ret void
}